target datalayout = "e-m:e-p270:32:32-p271:32:32-p272:64:64-i64:64-i128:128-f80:128-n8:16:32:64-S128"
target triple = "x86_64-pc-linux-gnu"

%struct.JNINativeInterface_ = type { ptr, ptr, ptr, ptr, ptr, ptr, ptr, ptr, ptr, ptr, ptr, ptr, ptr, ptr, ptr, ptr, ptr, ptr, ptr, ptr, ptr, ptr, ptr, ptr, ptr, ptr, ptr, ptr, ptr, ptr, ptr, ptr, ptr, ptr, ptr, ptr, ptr, ptr, ptr, ptr, ptr, ptr, ptr, ptr, ptr, ptr, ptr, ptr, ptr, ptr, ptr, ptr, ptr, ptr, ptr, ptr, ptr, ptr, ptr, ptr, ptr, ptr, ptr, ptr, ptr, ptr, ptr, ptr, ptr, ptr, ptr, ptr, ptr, ptr, ptr, ptr, ptr, ptr, ptr, ptr, ptr, ptr, ptr, ptr, ptr, ptr, ptr, ptr, ptr, ptr, ptr, ptr, ptr, ptr, ptr, ptr, ptr, ptr, ptr, ptr, ptr, ptr, ptr, ptr, ptr, ptr, ptr, ptr, ptr, ptr, ptr, ptr, ptr, ptr, ptr, ptr, ptr, ptr, ptr, ptr, ptr, ptr, ptr, ptr, ptr, ptr, ptr, ptr, ptr, ptr, ptr, ptr, ptr, ptr, ptr, ptr, ptr, ptr, ptr, ptr, ptr, ptr, ptr, ptr, ptr, ptr, ptr, ptr, ptr, ptr, ptr, ptr, ptr, ptr, ptr, ptr, ptr, ptr, ptr, ptr, ptr, ptr, ptr, ptr, ptr, ptr, ptr, ptr, ptr, ptr, ptr, ptr, ptr, ptr, ptr, ptr, ptr, ptr, ptr, ptr, ptr, ptr, ptr, ptr, ptr, ptr, ptr, ptr, ptr, ptr, ptr, ptr, ptr, ptr, ptr, ptr, ptr, ptr, ptr, ptr, ptr, ptr, ptr, ptr, ptr, ptr, ptr, ptr, ptr, ptr, ptr, ptr, ptr, ptr, ptr, ptr, ptr, ptr, ptr, ptr, ptr, ptr, ptr, ptr, ptr, ptr, ptr, ptr, ptr, ptr, ptr, ptr, ptr, ptr, ptr }
%struct.GSS_FUNCTION_TABLE = type { ptr, ptr, ptr, ptr, ptr, ptr, ptr, ptr, ptr, ptr, ptr, ptr, ptr, ptr, ptr, ptr, ptr, ptr, ptr, ptr, ptr, ptr, ptr, ptr, ptr, ptr, ptr, ptr, ptr }
%struct.gss_buffer_desc_struct = type { i64, ptr }

@JGSS_DEBUG = external global i32, align 4
@stderr = external global ptr, align 8
@.str = private unnamed_addr constant [20 x i8] c"[GSSLibStub:%d] %s\0A\00", align 1
@ftab = external global ptr, align 8
@.str.6 = private unnamed_addr constant [46 x i8] c"[GSSLibStub:%d] [GSSLibStub_releaseName] %ld\0A\00", align 1
@.str.7 = private unnamed_addr constant [25 x i8] c"[GSSLibStub_releaseName]\00", align 1
@.str.15 = private unnamed_addr constant [45 x i8] c"[GSSLibStub:%d] [GSSLibStub_exportName] %ld\0A\00", align 1
@.str.16 = private unnamed_addr constant [48 x i8] c"[GSSLibStub_exportName] canonicalize and re-try\00", align 1
@.str.17 = private unnamed_addr constant [24 x i8] c"[GSSLibStub_exportName]\00", align 1

; Function Attrs: nounwind uwtable
define void @Java_sun_security_jgss_wrapper_GSSLibStub_releaseName(ptr noundef %0, ptr noundef %1, i64 noundef %2) #0 {
  %4 = alloca ptr, align 8
  %5 = alloca ptr, align 8
  %6 = alloca i64, align 8
  %7 = alloca i32, align 4
  %8 = alloca i32, align 4
  %9 = alloca ptr, align 8
  store ptr %0, ptr %4, align 8
  store ptr %1, ptr %5, align 8
  store i64 %2, ptr %6, align 8
  %10 = load i64, ptr %6, align 8
  %11 = inttoptr i64 %10 to ptr
  store ptr %11, ptr %9, align 8
  %12 = load i32, ptr @JGSS_DEBUG, align 4
  %13 = icmp ne i32 %12, 0
  br i1 %13, label %14, label %20

14:                                               ; preds = %3
  %15 = load ptr, ptr @stderr, align 8
  %16 = load i64, ptr %6, align 8
  %17 = call i32 (ptr, ptr, ...) @fprintf(ptr noundef %15, ptr noundef @.str.6, i32 noundef 365, i64 noundef %16) #5
  %18 = load ptr, ptr @stderr, align 8
  %19 = call i32 @fflush(ptr noundef %18)
  br label %20

20:                                               ; preds = %14, %3
  %21 = load ptr, ptr %9, align 8
  %22 = icmp ne ptr %21, null
  br i1 %22, label %23, label %32

23:                                               ; preds = %20
  %24 = load ptr, ptr @ftab, align 8
  %25 = getelementptr inbounds %struct.GSS_FUNCTION_TABLE, ptr %24, i32 0, i32 1
  %26 = load ptr, ptr %25, align 8
  %27 = call i32 %26(ptr noundef %7, ptr noundef %9)
  store i32 %27, ptr %8, align 4
  %28 = load ptr, ptr %4, align 8
  %29 = load ptr, ptr %5, align 8
  %30 = load i32, ptr %8, align 4
  %31 = load i32, ptr %7, align 4
  call void @checkStatus(ptr noundef %28, ptr noundef %29, i32 noundef %30, i32 noundef %31, ptr noundef @.str.7)
  br label %32

32:                                               ; preds = %23, %20
  ret void
}

; Function Attrs: nounwind uwtable
define ptr @Java_sun_security_jgss_wrapper_GSSLibStub_exportName(ptr noundef %0, ptr noundef %1, i64 noundef %2) #0 {
  %4 = alloca ptr, align 8
  %5 = alloca ptr, align 8
  %6 = alloca ptr, align 8
  %7 = alloca i64, align 8
  %8 = alloca i32, align 4
  %9 = alloca i32, align 4
  %10 = alloca ptr, align 8
  %11 = alloca ptr, align 8
  %12 = alloca %struct.gss_buffer_desc_struct, align 8
  %13 = alloca ptr, align 8
  store ptr %0, ptr %5, align 8
  store ptr %1, ptr %6, align 8
  store i64 %2, ptr %7, align 8
  %14 = load i64, ptr %7, align 8
  %15 = inttoptr i64 %14 to ptr
  store ptr %15, ptr %10, align 8
  %16 = load i32, ptr @JGSS_DEBUG, align 4
  %17 = icmp ne i32 %16, 0
  br i1 %17, label %18, label %24

18:                                               ; preds = %3
  %19 = load ptr, ptr @stderr, align 8
  %20 = load i64, ptr %7, align 8
  %21 = call i32 (ptr, ptr, ...) @fprintf(ptr noundef %19, ptr noundef @.str.15, i32 noundef 506, i64 noundef %20) #5
  %22 = load ptr, ptr @stderr, align 8
  %23 = call i32 @fflush(ptr noundef %22)
  br label %24

24:                                               ; preds = %18, %3
  %25 = load ptr, ptr @ftab, align 8
  %26 = getelementptr inbounds %struct.GSS_FUNCTION_TABLE, ptr %25, i32 0, i32 5
  %27 = load ptr, ptr %26, align 8
  %28 = load ptr, ptr %10, align 8
  %29 = call i32 %27(ptr noundef %8, ptr noundef %28, ptr noundef %12)
  store i32 %29, ptr %9, align 4
  %30 = load i32, ptr %9, align 4
  %31 = icmp eq i32 %30, 1179648
  br i1 %31, label %32, label %81

32:                                               ; preds = %24
  %33 = load ptr, ptr @ftab, align 8
  %34 = getelementptr inbounds %struct.GSS_FUNCTION_TABLE, ptr %33, i32 0, i32 28
  %35 = load ptr, ptr %34, align 8
  %36 = call i32 %35(ptr noundef %8, ptr noundef %12)
  %37 = load i32, ptr @JGSS_DEBUG, align 4
  %38 = icmp ne i32 %37, 0
  br i1 %38, label %39, label %44

39:                                               ; preds = %32
  %40 = load ptr, ptr @stderr, align 8
  %41 = call i32 (ptr, ptr, ...) @fprintf(ptr noundef %40, ptr noundef @.str, i32 noundef 517, ptr noundef @.str.16) #5
  %42 = load ptr, ptr @stderr, align 8
  %43 = call i32 @fflush(ptr noundef %42)
  br label %44

44:                                               ; preds = %39, %32
  %45 = load ptr, ptr %5, align 8
  %46 = load ptr, ptr %6, align 8
  %47 = load i64, ptr %7, align 8
  %48 = call i64 @Java_sun_security_jgss_wrapper_GSSLibStub_canonicalizeName(ptr noundef %45, ptr noundef %46, i64 noundef %47)
  %49 = inttoptr i64 %48 to ptr
  store ptr %49, ptr %11, align 8
  %50 = load ptr, ptr %5, align 8
  %51 = load ptr, ptr %50, align 8
  %52 = getelementptr inbounds %struct.JNINativeInterface_, ptr %51, i32 0, i32 228
  %53 = load ptr, ptr %52, align 8
  %54 = load ptr, ptr %5, align 8
  %55 = call zeroext i8 %53(ptr noundef %54)
  %56 = icmp ne i8 %55, 0
  br i1 %56, label %57, label %58

57:                                               ; preds = %44
  store ptr null, ptr %4, align 8
  br label %107

58:                                               ; preds = %44
  %59 = load ptr, ptr @ftab, align 8
  %60 = getelementptr inbounds %struct.GSS_FUNCTION_TABLE, ptr %59, i32 0, i32 5
  %61 = load ptr, ptr %60, align 8
  %62 = load ptr, ptr %11, align 8
  %63 = call i32 %61(ptr noundef %8, ptr noundef %62, ptr noundef %12)
  store i32 %63, ptr %9, align 4
  %64 = load ptr, ptr %5, align 8
  %65 = load ptr, ptr %6, align 8
  %66 = load ptr, ptr %11, align 8
  %67 = ptrtoint ptr %66 to i64
  call void @Java_sun_security_jgss_wrapper_GSSLibStub_releaseName(ptr noundef %64, ptr noundef %65, i64 noundef %67)
  %68 = load ptr, ptr %5, align 8
  %69 = load ptr, ptr %68, align 8
  %70 = getelementptr inbounds %struct.JNINativeInterface_, ptr %69, i32 0, i32 228
  %71 = load ptr, ptr %70, align 8
  %72 = load ptr, ptr %5, align 8
  %73 = call zeroext i8 %71(ptr noundef %72)
  %74 = icmp ne i8 %73, 0
  br i1 %74, label %75, label %80

75:                                               ; preds = %58
  %76 = load ptr, ptr @ftab, align 8
  %77 = getelementptr inbounds %struct.GSS_FUNCTION_TABLE, ptr %76, i32 0, i32 28
  %78 = load ptr, ptr %77, align 8
  %79 = call i32 %78(ptr noundef %8, ptr noundef %12)
  store ptr null, ptr %4, align 8
  br label %107

80:                                               ; preds = %58
  br label %81

81:                                               ; preds = %80, %24
  %82 = load ptr, ptr %5, align 8
  %83 = call ptr @getJavaBuffer(ptr noundef %82, ptr noundef %12)
  store ptr %83, ptr %13, align 8
  %84 = load ptr, ptr %5, align 8
  %85 = load ptr, ptr %84, align 8
  %86 = getelementptr inbounds %struct.JNINativeInterface_, ptr %85, i32 0, i32 228
  %87 = load ptr, ptr %86, align 8
  %88 = load ptr, ptr %5, align 8
  %89 = call zeroext i8 %87(ptr noundef %88)
  %90 = icmp ne i8 %89, 0
  br i1 %90, label %91, label %92

91:                                               ; preds = %81
  store ptr null, ptr %4, align 8
  br label %107

92:                                               ; preds = %81
  %93 = load ptr, ptr %5, align 8
  %94 = load ptr, ptr %6, align 8
  %95 = load i32, ptr %9, align 4
  %96 = load i32, ptr %8, align 4
  call void @checkStatus(ptr noundef %93, ptr noundef %94, i32 noundef %95, i32 noundef %96, ptr noundef @.str.17)
  %97 = load ptr, ptr %5, align 8
  %98 = load ptr, ptr %97, align 8
  %99 = getelementptr inbounds %struct.JNINativeInterface_, ptr %98, i32 0, i32 228
  %100 = load ptr, ptr %99, align 8
  %101 = load ptr, ptr %5, align 8
  %102 = call zeroext i8 %100(ptr noundef %101)
  %103 = icmp ne i8 %102, 0
  br i1 %103, label %104, label %105

104:                                              ; preds = %92
  store ptr null, ptr %4, align 8
  br label %107

105:                                              ; preds = %92
  %106 = load ptr, ptr %13, align 8
  store ptr %106, ptr %4, align 8
  br label %107

107:                                              ; preds = %105, %104, %91, %75, %57
  %108 = load ptr, ptr %4, align 8
  ret ptr %108
}