; Function Attrs: nounwind uwtable
define ptr @Java_sun_security_jgss_wrapper_GSSLibStub_exportName(ptr noundef %0, ptr noundef %1, i64 noundef %2) local_unnamed_addr #0 {
  %4 = alloca i32, align 4
  %5 = alloca ptr, align 8
  %6 = alloca i32, align 4
  %7 = alloca %struct.gss_buffer_desc_struct, align 8
  %8 = inttoptr i64 %2 to ptr
  %9 = load i32, ptr @JGSS_DEBUG, align 4
  %.not = icmp eq i32 %9, 0
  br i1 %.not, label %15, label %10

10:                                               ; preds = %3
  %11 = load ptr, ptr @stderr, align 8
  %12 = tail call i32 (ptr, ptr, ...) @fprintf(ptr noundef %11, ptr noundef nonnull @.str.15, i32 noundef 506, i64 noundef %2) #8
  %13 = load ptr, ptr @stderr, align 8
  %14 = tail call i32 @fflush(ptr noundef %13)
  br label %15

15:                                               ; preds = %10, %3
  %16 = load ptr, ptr @ftab, align 8
  %17 = getelementptr inbounds i8, ptr %16, i64 40
  %18 = load ptr, ptr %17, align 8
  %19 = call i32 %18(ptr noundef nonnull %6, ptr noundef %8, ptr noundef nonnull %7) #9
  %20 = icmp eq i32 %19, 1179648
  br i1 %20, label %21, label %66

21:                                               ; preds = %15
  %22 = load ptr, ptr @ftab, align 8
  %23 = getelementptr inbounds i8, ptr %22, i64 224
  %24 = load ptr, ptr %23, align 8
  %25 = call i32 %24(ptr noundef nonnull %6, ptr noundef nonnull %7) #9
  %26 = load i32, ptr @JGSS_DEBUG, align 4
  %.not26 = icmp eq i32 %26, 0
  br i1 %.not26, label %32, label %27

27:                                               ; preds = %21
  %28 = load ptr, ptr @stderr, align 8
  %29 = call i32 (ptr, ptr, ...) @fprintf(ptr noundef %28, ptr noundef nonnull @.str, i32 noundef 517, ptr noundef nonnull @.str.16) #8
  %30 = load ptr, ptr @stderr, align 8
  %31 = call i32 @fflush(ptr noundef %30)
  br label %32

32:                                               ; preds = %27, %21
  %33 = call i64 @Java_sun_security_jgss_wrapper_GSSLibStub_canonicalizeName(ptr noundef %0, ptr noundef %1, i64 noundef %2)
  %34 = load ptr, ptr %0, align 8
  %35 = getelementptr inbounds i8, ptr %34, i64 1824
  %36 = load ptr, ptr %35, align 8
  %37 = call zeroext i8 %36(ptr noundef nonnull %0) #9
  %.not27 = icmp eq i8 %37, 0
  br i1 %.not27, label %38, label %78

38:                                               ; preds = %32
  %39 = inttoptr i64 %33 to ptr
  %40 = load ptr, ptr @ftab, align 8
  %41 = getelementptr inbounds i8, ptr %40, i64 40
  %42 = load ptr, ptr %41, align 8
  %43 = call i32 %42(ptr noundef nonnull %6, ptr noundef %39, ptr noundef nonnull %7) #9
  call void @llvm.lifetime.start.p0(i64 4, ptr nonnull %4)
  call void @llvm.lifetime.start.p0(i64 8, ptr nonnull %5)
  store ptr %39, ptr %5, align 8
  %44 = load i32, ptr @JGSS_DEBUG, align 4
  %.not.i = icmp eq i32 %44, 0
  br i1 %.not.i, label %50, label %45

45:                                               ; preds = %38
  %46 = load ptr, ptr @stderr, align 8
  %47 = call i32 (ptr, ptr, ...) @fprintf(ptr noundef %46, ptr noundef nonnull @.str.6, i32 noundef 365, i64 noundef %33) #8
  %48 = load ptr, ptr @stderr, align 8
  %49 = call i32 @fflush(ptr noundef %48)
  br label %50

50:                                               ; preds = %45, %38
  %.not4.i = icmp eq i64 %33, 0
  br i1 %.not4.i, label %Java_sun_security_jgss_wrapper_GSSLibStub_releaseName.exit, label %51

51:                                               ; preds = %50
  %52 = load ptr, ptr @ftab, align 8
  %53 = getelementptr inbounds i8, ptr %52, i64 8
  %54 = load ptr, ptr %53, align 8
  %55 = call i32 %54(ptr noundef nonnull %4, ptr noundef nonnull %5) #9
  %56 = load i32, ptr %4, align 4
  call void @checkStatus(ptr noundef nonnull %0, ptr noundef %1, i32 noundef %55, i32 noundef %56, ptr noundef nonnull @.str.7) #9
  br label %Java_sun_security_jgss_wrapper_GSSLibStub_releaseName.exit

Java_sun_security_jgss_wrapper_GSSLibStub_releaseName.exit: ; preds = %50, %51
  call void @llvm.lifetime.end.p0(i64 4, ptr nonnull %4)
  call void @llvm.lifetime.end.p0(i64 8, ptr nonnull %5)
  %57 = load ptr, ptr %0, align 8
  %58 = getelementptr inbounds i8, ptr %57, i64 1824
  %59 = load ptr, ptr %58, align 8
  %60 = call zeroext i8 %59(ptr noundef nonnull %0) #9
  %.not28 = icmp eq i8 %60, 0
  br i1 %.not28, label %66, label %61

61:                                               ; preds = %Java_sun_security_jgss_wrapper_GSSLibStub_releaseName.exit
  %62 = load ptr, ptr @ftab, align 8
  %63 = getelementptr inbounds i8, ptr %62, i64 224
  %64 = load ptr, ptr %63, align 8
  %65 = call i32 %64(ptr noundef nonnull %6, ptr noundef nonnull %7) #9
  br label %78

66:                                               ; preds = %Java_sun_security_jgss_wrapper_GSSLibStub_releaseName.exit, %15
  %.024 = phi i32 [ %43, %Java_sun_security_jgss_wrapper_GSSLibStub_releaseName.exit ], [ %19, %15 ]
  %67 = call ptr @getJavaBuffer(ptr noundef %0, ptr noundef nonnull %7) #9
  %68 = load ptr, ptr %0, align 8
  %69 = getelementptr inbounds i8, ptr %68, i64 1824
  %70 = load ptr, ptr %69, align 8
  %71 = call zeroext i8 %70(ptr noundef nonnull %0) #9
  %.not29 = icmp eq i8 %71, 0
  br i1 %.not29, label %72, label %78

72:                                               ; preds = %66
  %73 = load i32, ptr %6, align 4
  call void @checkStatus(ptr noundef nonnull %0, ptr noundef %1, i32 noundef %.024, i32 noundef %73, ptr noundef nonnull @.str.17) #9
  %74 = load ptr, ptr %0, align 8
  %75 = getelementptr inbounds i8, ptr %74, i64 1824
  %76 = load ptr, ptr %75, align 8
  %77 = call zeroext i8 %76(ptr noundef nonnull %0) #9
  %.not30 = icmp eq i8 %77, 0
  %. = select i1 %.not30, ptr %67, ptr null
  br label %78

78:                                               ; preds = %72, %66, %32, %61
  %.0 = phi ptr [ null, %61 ], [ null, %32 ], [ null, %66 ], [ %., %72 ]
  ret ptr %.0
}